; Function Attrs: mustprogress nofree norecurse nosync nounwind willreturn memory(argmem: read) uwtable
define noundef float @_ZN5faiss10fvec_L2sqrEPKfS1_m(ptr noundef readonly captures(none) %0, ptr noundef readonly captures(none) %1, i64 noundef %2) local_unnamed_addr #0 {
  %.not = icmp eq i64 %2, 0
  br i1 %.not, label %._crit_edge, label %.lr.ph.preheader

.lr.ph.preheader:                                 ; preds = %3
  %min.iters.check = icmp ult i64 %2, 8
  br i1 %min.iters.check, label %.lr.ph.preheader17, label %vector.ph

vector.ph:                                        ; preds = %.lr.ph.preheader
  %n.vec = and i64 %2, -8
  br label %vector.body

vector.body:                                      ; preds = %vector.body, %vector.ph
  %index = phi i64 [ 0, %vector.ph ], [ %index.next, %vector.body ]
  %vec.phi = phi <4 x float> [ zeroinitializer, %vector.ph ], [ %12, %vector.body ]
  %vec.phi13 = phi <4 x float> [ zeroinitializer, %vector.ph ], [ %13, %vector.body ]
  %4 = getelementptr inbounds nuw float, ptr %0, i64 %index
  %5 = getelementptr inbounds nuw i8, ptr %4, i64 16
  %wide.load = load <4 x float>, ptr %4, align 4, !tbaa !4
  %wide.load14 = load <4 x float>, ptr %5, align 4, !tbaa !4
  %6 = getelementptr inbounds nuw float, ptr %1, i64 %index
  %7 = getelementptr inbounds nuw i8, ptr %6, i64 16
  %wide.load15 = load <4 x float>, ptr %6, align 4, !tbaa !4
  %wide.load16 = load <4 x float>, ptr %7, align 4, !tbaa !4
  %8 = fsub fast <4 x float> %wide.load, %wide.load15
  %9 = fsub fast <4 x float> %wide.load14, %wide.load16
  %10 = fmul fast <4 x float> %8, %8
  %11 = fmul fast <4 x float> %9, %9
  %12 = fadd fast <4 x float> %10, %vec.phi
  %13 = fadd fast <4 x float> %11, %vec.phi13
  %index.next = add nuw i64 %index, 8
  %14 = icmp eq i64 %index.next, %n.vec
  br i1 %14, label %middle.block, label %vector.body, !llvm.loop !16

middle.block:                                     ; preds = %vector.body
  %bin.rdx = fadd fast <4 x float> %13, %12
  %15 = tail call fast float @llvm.vector.reduce.fadd.v4f32(float 0.000000e+00, <4 x float> %bin.rdx)
  %cmp.n = icmp eq i64 %2, %n.vec
  br i1 %cmp.n, label %._crit_edge, label %.lr.ph.preheader17

.lr.ph.preheader17:                               ; preds = %.lr.ph.preheader, %middle.block
  %.012.ph = phi i64 [ 0, %.lr.ph.preheader ], [ %n.vec, %middle.block ]
  %.01011.ph = phi float [ 0.000000e+00, %.lr.ph.preheader ], [ %15, %middle.block ]
  br label %.lr.ph

.lr.ph:                                           ; preds = %.lr.ph.preheader17, %.lr.ph
  %.012 = phi i64 [ %23, %.lr.ph ], [ %.012.ph, %.lr.ph.preheader17 ]
  %.01011 = phi float [ %22, %.lr.ph ], [ %.01011.ph, %.lr.ph.preheader17 ]
  %16 = getelementptr inbounds nuw float, ptr %0, i64 %.012
  %17 = load float, ptr %16, align 4, !tbaa !4
  %18 = getelementptr inbounds nuw float, ptr %1, i64 %.012
  %19 = load float, ptr %18, align 4, !tbaa !4
  %20 = fsub fast float %17, %19
  %21 = fmul fast float %20, %20
  %22 = fadd fast float %21, %.01011
  %23 = add nuw i64 %.012, 1
  %exitcond.not = icmp eq i64 %23, %2
  br i1 %exitcond.not, label %._crit_edge, label %.lr.ph, !llvm.loop !17

._crit_edge:                                      ; preds = %.lr.ph, %middle.block, %3
  %.010.lcssa = phi float [ 0.000000e+00, %3 ], [ %15, %middle.block ], [ %22, %.lr.ph ]
  ret float %.010.lcssa
}